target datalayout = "e-m:e-p270:32:32-p271:32:32-p272:64:64-i64:64-i128:128-f80:128-n8:16:32:64-S128"
target triple = "x86_64-pc-linux-gnu"

%"class.icu_77::EraRules" = type { %"class.icu_77::LocalMemory", i32, i32 }
%"class.icu_77::LocalMemory" = type { %"class.icu_77::LocalPointerBase" }
%"class.icu_77::LocalPointerBase" = type { ptr }

; Function Attrs: mustprogress nounwind uwtable
define internal void @_ZN6icu_77L10decodeDateEiRA3_i(i32 noundef %0, ptr noundef nonnull align 4 dereferenceable(12) %1) #1 {
  %3 = alloca i32, align 4
  %4 = alloca ptr, align 8
  store i32 %0, ptr %3, align 4, !tbaa !10
  store ptr %1, ptr %4, align 8, !tbaa !17
  %5 = load i32, ptr %3, align 4, !tbaa !10
  %6 = icmp eq i32 %5, -2147483391
  br i1 %6, label %7, label %14

7:                                                ; preds = %2
  %8 = load ptr, ptr %4, align 8, !tbaa !17
  %9 = getelementptr inbounds [3 x i32], ptr %8, i64 0, i64 0
  store i32 -1, ptr %9, align 4, !tbaa !10
  %10 = load ptr, ptr %4, align 8, !tbaa !17
  %11 = getelementptr inbounds [3 x i32], ptr %10, i64 0, i64 1
  store i32 1, ptr %11, align 4, !tbaa !10
  %12 = load ptr, ptr %4, align 8, !tbaa !17
  %13 = getelementptr inbounds [3 x i32], ptr %12, i64 0, i64 2
  store i32 1, ptr %13, align 4, !tbaa !10
  br label %29

14:                                               ; preds = %2
  %15 = load i32, ptr %3, align 4, !tbaa !10
  %16 = and i32 %15, -65536
  %17 = ashr i32 %16, 16
  %18 = load ptr, ptr %4, align 8, !tbaa !17
  %19 = getelementptr inbounds [3 x i32], ptr %18, i64 0, i64 0
  store i32 %17, ptr %19, align 4, !tbaa !10
  %20 = load i32, ptr %3, align 4, !tbaa !10
  %21 = and i32 %20, 65280
  %22 = ashr i32 %21, 8
  %23 = load ptr, ptr %4, align 8, !tbaa !17
  %24 = getelementptr inbounds [3 x i32], ptr %23, i64 0, i64 1
  store i32 %22, ptr %24, align 4, !tbaa !10
  %25 = load i32, ptr %3, align 4, !tbaa !10
  %26 = and i32 %25, 255
  %27 = load ptr, ptr %4, align 8, !tbaa !17
  %28 = getelementptr inbounds [3 x i32], ptr %27, i64 0, i64 2
  store i32 %26, ptr %28, align 4, !tbaa !10
  br label %29

29:                                               ; preds = %14, %7
  ret void
}

; Function Attrs: mustprogress nounwind uwtable
define linkonce_odr noundef nonnull align 4 dereferenceable(4) ptr @_ZNK6icu_7711LocalMemoryIiEixEl(ptr noundef nonnull align 8 dereferenceable(8) %0, i64 noundef %1) #1 comdat align 2 {
  %3 = alloca ptr, align 8
  %4 = alloca i64, align 8
  store ptr %0, ptr %3, align 8, !tbaa !8
  store i64 %1, ptr %4, align 8, !tbaa !48
  %5 = load ptr, ptr %3, align 8
  %6 = getelementptr inbounds nuw %"class.icu_77::LocalPointerBase", ptr %5, i32 0, i32 0
  %7 = load ptr, ptr %6, align 8, !tbaa !18
  %8 = load i64, ptr %4, align 8, !tbaa !48
  %9 = getelementptr inbounds i32, ptr %7, i64 %8
  ret ptr %9
}

; Function Attrs: inlinehint mustprogress nounwind uwtable
define internal noundef signext i8 @_ZL9U_FAILURE10UErrorCode(i32 noundef %0) #2 {
  %2 = alloca i32, align 4
  store i32 %0, ptr %2, align 4, !tbaa !19
  %3 = load i32, ptr %2, align 4, !tbaa !19
  %4 = icmp sgt i32 %3, 0
  %5 = zext i1 %4 to i8
  ret i8 %5
}

; Function Attrs: mustprogress uwtable
define void @_ZNK6icu_778EraRules12getStartDateEiRA3_iR10UErrorCode(ptr noundef nonnull align 8 dereferenceable(16) %0, i32 noundef %1, ptr noundef nonnull align 4 dereferenceable(12) %2, ptr noundef nonnull align 4 dereferenceable(4) %3) #0 align 2 {
  %5 = alloca ptr, align 8
  %6 = alloca i32, align 4
  %7 = alloca ptr, align 8
  %8 = alloca ptr, align 8
  store ptr %0, ptr %5, align 8, !tbaa !3
  store i32 %1, ptr %6, align 4, !tbaa !10
  store ptr %2, ptr %7, align 8, !tbaa !17
  store ptr %3, ptr %8, align 8, !tbaa !33
  %9 = load ptr, ptr %5, align 8
  %10 = load ptr, ptr %8, align 8, !tbaa !33
  %11 = load i32, ptr %10, align 4, !tbaa !19
  %12 = call noundef signext i8 @_ZL9U_FAILURE10UErrorCode(i32 noundef %11)
  %13 = icmp ne i8 %12, 0
  br i1 %13, label %14, label %15

14:                                               ; preds = %4
  br label %32

15:                                               ; preds = %4
  %16 = load i32, ptr %6, align 4, !tbaa !10
  %17 = icmp slt i32 %16, 0
  br i1 %17, label %23, label %18

18:                                               ; preds = %15
  %19 = load i32, ptr %6, align 4, !tbaa !10
  %20 = getelementptr inbounds nuw %"class.icu_77::EraRules", ptr %9, i32 0, i32 1
  %21 = load i32, ptr %20, align 8, !tbaa !12
  %22 = icmp sge i32 %19, %21
  br i1 %22, label %23, label %25

23:                                               ; preds = %18, %15
  %24 = load ptr, ptr %8, align 8, !tbaa !33
  store i32 1, ptr %24, align 4, !tbaa !19
  br label %32

25:                                               ; preds = %18
  %26 = getelementptr inbounds nuw %"class.icu_77::EraRules", ptr %9, i32 0, i32 0
  %27 = load i32, ptr %6, align 4, !tbaa !10
  %28 = sext i32 %27 to i64
  %29 = call noundef nonnull align 4 dereferenceable(4) ptr @_ZNK6icu_7711LocalMemoryIiEixEl(ptr noundef nonnull align 8 dereferenceable(8) %26, i64 noundef %28)
  %30 = load i32, ptr %29, align 4, !tbaa !10
  %31 = load ptr, ptr %7, align 8, !tbaa !17
  call void @_ZN6icu_77L10decodeDateEiRA3_i(i32 noundef %30, ptr noundef nonnull align 4 dereferenceable(12) %31)
  br label %32

32:                                               ; preds = %25, %23, %14
  ret void
}