; Function Attrs: mustprogress nofree norecurse nosync nounwind willreturn memory(read, argmem: readwrite, inaccessiblemem: none) uwtable
define void @_ZNK6icu_778EraRules12getStartDateEiRA3_iR10UErrorCode(ptr noundef nonnull readonly align 8 captures(none) dereferenceable(16) %0, i32 noundef %1, ptr noundef nonnull writeonly align 4 captures(none) dereferenceable(12) %2, ptr noundef nonnull align 4 captures(none) dereferenceable(4) %3) local_unnamed_addr #9 align 2 {
  %5 = load i32, ptr %3, align 4, !tbaa !13
  %6 = icmp slt i32 %5, 1
  br i1 %6, label %7, label %24

7:                                                ; preds = %4
  %8 = icmp sgt i32 %1, -1
  %9 = getelementptr inbounds nuw i8, ptr %0, i64 8
  %10 = load i32, ptr %9, align 8
  %.not6 = icmp slt i32 %1, %10
  %or.cond = select i1 %8, i1 %.not6, i1 false
  br i1 %or.cond, label %12, label %11

11:                                               ; preds = %7
  store i32 1, ptr %3, align 4, !tbaa !13
  br label %24

12:                                               ; preds = %7
  %13 = zext nneg i32 %1 to i64
  %14 = load ptr, ptr %0, align 8, !tbaa !3
  %15 = getelementptr inbounds nuw i32, ptr %14, i64 %13
  %16 = load i32, ptr %15, align 4, !tbaa !17
  %17 = icmp eq i32 %16, -2147483391
  %18 = ashr i32 %16, 16
  %19 = lshr i32 %16, 8
  %20 = and i32 %19, 255
  %21 = and i32 %16, 255
  %.sink10.i = select i1 %17, i32 -1, i32 %18
  store i32 %.sink10.i, ptr %2, align 4, !tbaa !17
  %22 = getelementptr inbounds nuw i8, ptr %2, i64 4
  store i32 %20, ptr %22, align 4, !tbaa !17
  %23 = getelementptr inbounds nuw i8, ptr %2, i64 8
  store i32 %21, ptr %23, align 4, !tbaa !17
  br label %24

24:                                               ; preds = %4, %12, %11
  ret void
}